target datalayout = "e-m:e-p270:32:32-p271:32:32-p272:64:64-i64:64-i128:128-f80:128-n8:16:32:64-S128"
target triple = "x86_64-pc-linux-gnu"

%struct.Dch_Man_t_ = type { ptr, ptr, ptr, ptr, ptr, ptr, i32, ptr, ptr, i32, i32, ptr, ptr, ptr, i32, i32, i32, i32, i32, i32, i32, i32, i32, i32, i32, i64, i64, i64, i64, i64, i64, i64, i64, i64 }
%struct.Aig_Obj_t_ = type { %union.anon, ptr, ptr, i64, i32, i32, %union.anon.0 }
%union.anon = type { ptr }
%union.anon.0 = type { ptr }
%struct.Aig_Man_t_ = type { ptr, ptr, ptr, ptr, ptr, ptr, ptr, %struct.Aig_Obj_t_, i32, i32, i32, i32, i32, i32, [7 x i32], i32, ptr, i32, ptr, i32, ptr, i32, i32, i32, ptr, i32, i32, i32, i32, i32, ptr, ptr, i32, ptr, ptr, i32, ptr, ptr, i32, i32, i32, ptr, ptr, ptr, ptr, ptr, ptr, ptr, ptr, ptr, ptr, ptr, ptr, ptr, ptr, i32, ptr, ptr, ptr, ptr, i32, i64, i64, i64, ptr, ptr }
%struct.Vec_Ptr_t_ = type { i32, i32, ptr }
%struct.timespec = type { i64, i64 }

; Function Attrs: inlinehint nounwind uwtable
define internal ptr @Aig_ObjRepr(ptr noundef %0, ptr noundef %1) #2 {
  %3 = alloca ptr, align 8
  %4 = alloca ptr, align 8
  store ptr %0, ptr %3, align 8, !tbaa !28
  store ptr %1, ptr %4, align 8, !tbaa !8
  %5 = load ptr, ptr %3, align 8, !tbaa !28
  %6 = getelementptr inbounds nuw %struct.Aig_Man_t_, ptr %5, i32 0, i32 31
  %7 = load ptr, ptr %6, align 8, !tbaa !39
  %8 = icmp ne ptr %7, null
  br i1 %8, label %9, label %19

9:                                                ; preds = %2
  %10 = load ptr, ptr %3, align 8, !tbaa !28
  %11 = getelementptr inbounds nuw %struct.Aig_Man_t_, ptr %10, i32 0, i32 31
  %12 = load ptr, ptr %11, align 8, !tbaa !39
  %13 = load ptr, ptr %4, align 8, !tbaa !8
  %14 = getelementptr inbounds nuw %struct.Aig_Obj_t_, ptr %13, i32 0, i32 5
  %15 = load i32, ptr %14, align 4, !tbaa !22
  %16 = sext i32 %15 to i64
  %17 = getelementptr inbounds ptr, ptr %12, i64 %16
  %18 = load ptr, ptr %17, align 8, !tbaa !8
  br label %20

19:                                               ; preds = %2
  br label %20

20:                                               ; preds = %19, %9
  %21 = phi ptr [ %18, %9 ], [ null, %19 ]
  ret ptr %21
}

; Function Attrs: inlinehint nounwind uwtable
define internal ptr @Vec_PtrEntry(ptr noundef %0, i32 noundef %1) #2 {
  %3 = alloca ptr, align 8
  %4 = alloca i32, align 4
  store ptr %0, ptr %3, align 8, !tbaa !41
  store i32 %1, ptr %4, align 4, !tbaa !10
  %5 = load ptr, ptr %3, align 8, !tbaa !41
  %6 = getelementptr inbounds nuw %struct.Vec_Ptr_t_, ptr %5, i32 0, i32 2
  %7 = load ptr, ptr %6, align 8, !tbaa !46
  %8 = load i32, ptr %4, align 4, !tbaa !10
  %9 = sext i32 %8 to i64
  %10 = getelementptr inbounds ptr, ptr %7, i64 %9
  %11 = load ptr, ptr %10, align 8, !tbaa !42
  ret ptr %11
}

; Function Attrs: inlinehint nounwind uwtable
define internal i32 @Vec_PtrSize(ptr noundef %0) #2 {
  %2 = alloca ptr, align 8
  store ptr %0, ptr %2, align 8, !tbaa !41
  %3 = load ptr, ptr %2, align 8, !tbaa !41
  %4 = getelementptr inbounds nuw %struct.Vec_Ptr_t_, ptr %3, i32 0, i32 1
  %5 = load i32, ptr %4, align 4, !tbaa !43
  ret i32 %5
}

; Function Attrs: inlinehint nounwind uwtable
define internal i32 @Abc_MaxInt(i32 noundef %0, i32 noundef %1) #2 {
  %3 = alloca i32, align 4
  %4 = alloca i32, align 4
  store i32 %0, ptr %3, align 4, !tbaa !10
  store i32 %1, ptr %4, align 4, !tbaa !10
  %5 = load i32, ptr %3, align 4, !tbaa !10
  %6 = load i32, ptr %4, align 4, !tbaa !10
  %7 = icmp sgt i32 %5, %6
  br i1 %7, label %8, label %10

8:                                                ; preds = %2
  %9 = load i32, ptr %3, align 4, !tbaa !10
  br label %12

10:                                               ; preds = %2
  %11 = load i32, ptr %4, align 4, !tbaa !10
  br label %12

12:                                               ; preds = %10, %8
  %13 = phi i32 [ %9, %8 ], [ %11, %10 ]
  ret i32 %13
}

; Function Attrs: inlinehint nounwind uwtable
define internal void @Aig_ObjSetTravIdCurrent(ptr noundef %0, ptr noundef %1) #2 {
  %3 = alloca ptr, align 8
  %4 = alloca ptr, align 8
  store ptr %0, ptr %3, align 8, !tbaa !28
  store ptr %1, ptr %4, align 8, !tbaa !8
  %5 = load ptr, ptr %3, align 8, !tbaa !28
  %6 = getelementptr inbounds nuw %struct.Aig_Man_t_, ptr %5, i32 0, i32 38
  %7 = load i32, ptr %6, align 8, !tbaa !30
  %8 = load ptr, ptr %4, align 8, !tbaa !8
  %9 = getelementptr inbounds nuw %struct.Aig_Obj_t_, ptr %8, i32 0, i32 4
  store i32 %7, ptr %9, align 8, !tbaa !29
  ret void
}

; Function Attrs: inlinehint nounwind uwtable
define internal ptr @Aig_ManConst1(ptr noundef %0) #2 {
  %2 = alloca ptr, align 8
  store ptr %0, ptr %2, align 8, !tbaa !28
  %3 = load ptr, ptr %2, align 8, !tbaa !28
  %4 = getelementptr inbounds nuw %struct.Aig_Man_t_, ptr %3, i32 0, i32 6
  %5 = load ptr, ptr %4, align 8, !tbaa !40
  ret ptr %5
}

; Function Attrs: inlinehint nounwind uwtable
define internal i32 @Dch_ObjIsConst1Cand(ptr noundef %0, ptr noundef %1) #2 {
  %3 = alloca ptr, align 8
  %4 = alloca ptr, align 8
  store ptr %0, ptr %3, align 8, !tbaa !28
  store ptr %1, ptr %4, align 8, !tbaa !8
  %5 = load ptr, ptr %3, align 8, !tbaa !28
  %6 = load ptr, ptr %4, align 8, !tbaa !8
  %7 = call ptr @Aig_ObjRepr(ptr noundef %5, ptr noundef %6)
  %8 = load ptr, ptr %3, align 8, !tbaa !28
  %9 = call ptr @Aig_ManConst1(ptr noundef %8)
  %10 = icmp eq ptr %7, %9
  %11 = zext i1 %10 to i32
  ret i32 %11
}

; Function Attrs: inlinehint nounwind uwtable
define internal i64 @Abc_Clock() #2 {
  %1 = alloca i64, align 8
  %2 = alloca %struct.timespec, align 8
  %3 = alloca i32, align 4
  %4 = alloca i64, align 8
  call void @llvm.lifetime.start.p0(i64 16, ptr %2) #7
  %5 = call i32 @clock_gettime(i32 noundef 1, ptr noundef %2) #7
  %6 = icmp slt i32 %5, 0
  br i1 %6, label %7, label %8

7:                                                ; preds = %0
  store i64 -1, ptr %1, align 8
  store i32 1, ptr %3, align 4
  br label %19

8:                                                ; preds = %0
  call void @llvm.lifetime.start.p0(i64 8, ptr %4) #7
  %9 = getelementptr inbounds nuw %struct.timespec, ptr %2, i32 0, i32 0
  %10 = load i64, ptr %9, align 8, !tbaa !76
  %11 = mul nsw i64 %10, 1000000
  store i64 %11, ptr %4, align 8, !tbaa !67
  %12 = getelementptr inbounds nuw %struct.timespec, ptr %2, i32 0, i32 1
  %13 = load i64, ptr %12, align 8, !tbaa !78
  %14 = mul nsw i64 %13, 1000000
  %15 = sdiv i64 %14, 1000000000
  %16 = load i64, ptr %4, align 8, !tbaa !67
  %17 = add nsw i64 %16, %15
  store i64 %17, ptr %4, align 8, !tbaa !67
  %18 = load i64, ptr %4, align 8, !tbaa !67
  store i64 %18, ptr %1, align 8
  store i32 1, ptr %3, align 4
  call void @llvm.lifetime.end.p0(i64 8, ptr %4) #7
  br label %19

19:                                               ; preds = %8, %7
  call void @llvm.lifetime.end.p0(i64 16, ptr %2) #7
  %20 = load i64, ptr %1, align 8
  ret i64 %20
}

; Function Attrs: nounwind uwtable
define void @Dch_ManResimulateCex2(ptr noundef %0, ptr noundef %1, ptr noundef %2) #0 {
  %4 = alloca ptr, align 8
  %5 = alloca ptr, align 8
  %6 = alloca ptr, align 8
  %7 = alloca ptr, align 8
  %8 = alloca i32, align 4
  %9 = alloca i32, align 4
  %10 = alloca i64, align 8
  store ptr %0, ptr %4, align 8, !tbaa !3
  store ptr %1, ptr %5, align 8, !tbaa !8
  store ptr %2, ptr %6, align 8, !tbaa !8
  call void @llvm.lifetime.start.p0(i64 8, ptr %7) #7
  call void @llvm.lifetime.start.p0(i64 4, ptr %8) #7
  call void @llvm.lifetime.start.p0(i64 4, ptr %9) #7
  call void @llvm.lifetime.start.p0(i64 8, ptr %10) #7
  %11 = call i64 @Abc_Clock()
  store i64 %11, ptr %10, align 8, !tbaa !67
  %12 = load ptr, ptr %4, align 8, !tbaa !3
  %13 = getelementptr inbounds nuw %struct.Dch_Man_t_, ptr %12, i32 0, i32 1
  %14 = load ptr, ptr %13, align 8, !tbaa !12
  %15 = load ptr, ptr %5, align 8, !tbaa !8
  %16 = call i32 @Dch_ObjIsConst1Cand(ptr noundef %14, ptr noundef %15)
  %17 = icmp ne i32 %16, 0
  br i1 %17, label %18, label %26

18:                                               ; preds = %3
  %19 = load ptr, ptr %4, align 8, !tbaa !3
  %20 = getelementptr inbounds nuw %struct.Dch_Man_t_, ptr %19, i32 0, i32 3
  %21 = load ptr, ptr %20, align 8, !tbaa !70
  %22 = load ptr, ptr %5, align 8, !tbaa !8
  %23 = load ptr, ptr %4, align 8, !tbaa !3
  %24 = getelementptr inbounds nuw %struct.Dch_Man_t_, ptr %23, i32 0, i32 12
  %25 = load ptr, ptr %24, align 8, !tbaa !26
  call void @Dch_ClassesCollectConst1Group(ptr noundef %21, ptr noundef %22, i32 noundef 500, ptr noundef %25)
  br label %34

26:                                               ; preds = %3
  %27 = load ptr, ptr %4, align 8, !tbaa !3
  %28 = getelementptr inbounds nuw %struct.Dch_Man_t_, ptr %27, i32 0, i32 3
  %29 = load ptr, ptr %28, align 8, !tbaa !70
  %30 = load ptr, ptr %6, align 8, !tbaa !8
  %31 = load ptr, ptr %4, align 8, !tbaa !3
  %32 = getelementptr inbounds nuw %struct.Dch_Man_t_, ptr %31, i32 0, i32 12
  %33 = load ptr, ptr %32, align 8, !tbaa !26
  call void @Dch_ClassesCollectOneClass(ptr noundef %29, ptr noundef %30, ptr noundef %33)
  br label %34

34:                                               ; preds = %26, %18
  %35 = load ptr, ptr %4, align 8, !tbaa !3
  %36 = getelementptr inbounds nuw %struct.Dch_Man_t_, ptr %35, i32 0, i32 14
  store i32 0, ptr %36, align 8, !tbaa !49
  %37 = load ptr, ptr %4, align 8, !tbaa !3
  %38 = getelementptr inbounds nuw %struct.Dch_Man_t_, ptr %37, i32 0, i32 1
  %39 = load ptr, ptr %38, align 8, !tbaa !12
  call void @Aig_ManIncrementTravId(ptr noundef %39)
  %40 = load ptr, ptr %4, align 8, !tbaa !3
  %41 = getelementptr inbounds nuw %struct.Dch_Man_t_, ptr %40, i32 0, i32 1
  %42 = load ptr, ptr %41, align 8, !tbaa !12
  %43 = load ptr, ptr %4, align 8, !tbaa !3
  %44 = getelementptr inbounds nuw %struct.Dch_Man_t_, ptr %43, i32 0, i32 1
  %45 = load ptr, ptr %44, align 8, !tbaa !12
  %46 = call ptr @Aig_ManConst1(ptr noundef %45)
  call void @Aig_ObjSetTravIdCurrent(ptr noundef %42, ptr noundef %46)
  %47 = load ptr, ptr %4, align 8, !tbaa !3
  %48 = load ptr, ptr %5, align 8, !tbaa !8
  call void @Dch_ManResimulateSolved_rec(ptr noundef %47, ptr noundef %48)
  %49 = load ptr, ptr %4, align 8, !tbaa !3
  %50 = load ptr, ptr %6, align 8, !tbaa !8
  call void @Dch_ManResimulateSolved_rec(ptr noundef %49, ptr noundef %50)
  %51 = load ptr, ptr %4, align 8, !tbaa !3
  %52 = getelementptr inbounds nuw %struct.Dch_Man_t_, ptr %51, i32 0, i32 15
  %53 = load i32, ptr %52, align 4, !tbaa !68
  %54 = load ptr, ptr %4, align 8, !tbaa !3
  %55 = getelementptr inbounds nuw %struct.Dch_Man_t_, ptr %54, i32 0, i32 14
  %56 = load i32, ptr %55, align 8, !tbaa !49
  %57 = call i32 @Abc_MaxInt(i32 noundef %53, i32 noundef %56)
  %58 = load ptr, ptr %4, align 8, !tbaa !3
  %59 = getelementptr inbounds nuw %struct.Dch_Man_t_, ptr %58, i32 0, i32 15
  store i32 %57, ptr %59, align 4, !tbaa !68
  store i32 0, ptr %8, align 4, !tbaa !10
  br label %60

60:                                               ; preds = %78, %34
  %61 = load i32, ptr %8, align 4, !tbaa !10
  %62 = load ptr, ptr %4, align 8, !tbaa !3
  %63 = getelementptr inbounds nuw %struct.Dch_Man_t_, ptr %62, i32 0, i32 12
  %64 = load ptr, ptr %63, align 8, !tbaa !26
  %65 = call i32 @Vec_PtrSize(ptr noundef %64)
  %66 = icmp slt i32 %61, %65
  br i1 %66, label %67, label %73

67:                                               ; preds = %60
  %68 = load ptr, ptr %4, align 8, !tbaa !3
  %69 = getelementptr inbounds nuw %struct.Dch_Man_t_, ptr %68, i32 0, i32 12
  %70 = load ptr, ptr %69, align 8, !tbaa !26
  %71 = load i32, ptr %8, align 4, !tbaa !10
  %72 = call ptr @Vec_PtrEntry(ptr noundef %70, i32 noundef %71)
  store ptr %72, ptr %7, align 8, !tbaa !8
  br label %73

73:                                               ; preds = %67, %60
  %74 = phi i1 [ false, %60 ], [ true, %67 ]
  br i1 %74, label %75, label %81

75:                                               ; preds = %73
  %76 = load ptr, ptr %4, align 8, !tbaa !3
  %77 = load ptr, ptr %7, align 8, !tbaa !8
  call void @Dch_ManResimulateOther_rec(ptr noundef %76, ptr noundef %77)
  br label %78

78:                                               ; preds = %75
  %79 = load i32, ptr %8, align 4, !tbaa !10
  %80 = add nsw i32 %79, 1
  store i32 %80, ptr %8, align 4, !tbaa !10
  br label %60, !llvm.loop !75

81:                                               ; preds = %73
  %82 = load ptr, ptr %4, align 8, !tbaa !3
  %83 = getelementptr inbounds nuw %struct.Dch_Man_t_, ptr %82, i32 0, i32 1
  %84 = load ptr, ptr %83, align 8, !tbaa !12
  %85 = load ptr, ptr %5, align 8, !tbaa !8
  %86 = call i32 @Dch_ObjIsConst1Cand(ptr noundef %84, ptr noundef %85)
  %87 = icmp ne i32 %86, 0
  br i1 %87, label %88, label %96

88:                                               ; preds = %81
  %89 = load ptr, ptr %4, align 8, !tbaa !3
  %90 = getelementptr inbounds nuw %struct.Dch_Man_t_, ptr %89, i32 0, i32 3
  %91 = load ptr, ptr %90, align 8, !tbaa !70
  %92 = load ptr, ptr %4, align 8, !tbaa !3
  %93 = getelementptr inbounds nuw %struct.Dch_Man_t_, ptr %92, i32 0, i32 12
  %94 = load ptr, ptr %93, align 8, !tbaa !26
  %95 = call i32 @Dch_ClassesRefineConst1Group(ptr noundef %91, ptr noundef %94, i32 noundef 0)
  store i32 %95, ptr %9, align 4, !tbaa !10
  br label %102

96:                                               ; preds = %81
  %97 = load ptr, ptr %4, align 8, !tbaa !3
  %98 = getelementptr inbounds nuw %struct.Dch_Man_t_, ptr %97, i32 0, i32 3
  %99 = load ptr, ptr %98, align 8, !tbaa !70
  %100 = load ptr, ptr %6, align 8, !tbaa !8
  %101 = call i32 @Dch_ClassesRefineOneClass(ptr noundef %99, ptr noundef %100, i32 noundef 0)
  store i32 %101, ptr %9, align 4, !tbaa !10
  br label %102

102:                                              ; preds = %96, %88
  %103 = call i64 @Abc_Clock()
  %104 = load i64, ptr %10, align 8, !tbaa !67
  %105 = sub nsw i64 %103, %104
  %106 = load ptr, ptr %4, align 8, !tbaa !3
  %107 = getelementptr inbounds nuw %struct.Dch_Man_t_, ptr %106, i32 0, i32 26
  %108 = load i64, ptr %107, align 8, !tbaa !74
  %109 = add nsw i64 %108, %105
  store i64 %109, ptr %107, align 8, !tbaa !74
  call void @llvm.lifetime.end.p0(i64 8, ptr %10) #7
  call void @llvm.lifetime.end.p0(i64 4, ptr %9) #7
  call void @llvm.lifetime.end.p0(i64 4, ptr %8) #7
  call void @llvm.lifetime.end.p0(i64 8, ptr %7) #7
  ret void
}