; Function Attrs: nounwind uwtable
define void @Dch_ManResimulateCex2(ptr noundef initializes((104, 108)) %0, ptr noundef %1, ptr noundef %2) local_unnamed_addr #0 {
  %4 = alloca %struct.timespec, align 8
  %5 = alloca %struct.timespec, align 8
  call void @llvm.lifetime.start.p0(i64 16, ptr nonnull %5) #11
  %6 = call i32 @clock_gettime(i32 noundef 1, ptr noundef nonnull %5) #11
  %7 = icmp slt i32 %6, 0
  br i1 %7, label %Abc_Clock.exit, label %8

8:                                                ; preds = %3
  %9 = load i64, ptr %5, align 8, !tbaa !62
  %.neg44 = mul i64 %9, -1000000
  %10 = getelementptr inbounds nuw i8, ptr %5, i64 8
  %11 = load i64, ptr %10, align 8, !tbaa !64
  %.neg = sdiv i64 %11, -1000
  %.neg45 = add i64 %.neg, %.neg44
  br label %Abc_Clock.exit

Abc_Clock.exit:                                   ; preds = %3, %8
  %.0.i.neg = phi i64 [ %.neg45, %8 ], [ 1, %3 ]
  call void @llvm.lifetime.end.p0(i64 16, ptr nonnull %5) #11
  %12 = getelementptr inbounds nuw i8, ptr %0, i64 8
  %13 = load ptr, ptr %12, align 8, !tbaa !3
  %14 = getelementptr i8, ptr %13, i64 256
  %.val.i = load ptr, ptr %14, align 8, !tbaa !36
  %.not.i.i = icmp eq ptr %.val.i, null
  br i1 %.not.i.i, label %Dch_ObjIsConst1Cand.exit, label %15

15:                                               ; preds = %Abc_Clock.exit
  %16 = getelementptr inbounds nuw i8, ptr %1, i64 36
  %17 = load i32, ptr %16, align 4, !tbaa !27
  %18 = sext i32 %17 to i64
  %19 = getelementptr inbounds ptr, ptr %.val.i, i64 %18
  %20 = load ptr, ptr %19, align 8, !tbaa !37
  br label %Dch_ObjIsConst1Cand.exit

Dch_ObjIsConst1Cand.exit:                         ; preds = %Abc_Clock.exit, %15
  %21 = phi ptr [ %20, %15 ], [ null, %Abc_Clock.exit ]
  %22 = getelementptr i8, ptr %13, i64 48
  %.val3.i = load ptr, ptr %22, align 8, !tbaa !38
  %.not = icmp eq ptr %21, %.val3.i
  %23 = getelementptr inbounds nuw i8, ptr %0, i64 24
  %24 = load ptr, ptr %23, align 8, !tbaa !67
  %25 = getelementptr inbounds nuw i8, ptr %0, i64 88
  %26 = load ptr, ptr %25, align 8, !tbaa !39
  br i1 %.not, label %27, label %28

27:                                               ; preds = %Dch_ObjIsConst1Cand.exit
  call void @Dch_ClassesCollectConst1Group(ptr noundef %24, ptr noundef %1, i32 noundef 500, ptr noundef %26) #11
  br label %29

28:                                               ; preds = %Dch_ObjIsConst1Cand.exit
  call void @Dch_ClassesCollectOneClass(ptr noundef %24, ptr noundef %2, ptr noundef %26) #11
  br label %29

29:                                               ; preds = %28, %27
  %30 = getelementptr inbounds nuw i8, ptr %0, i64 104
  store i32 0, ptr %30, align 8, !tbaa !61
  %31 = load ptr, ptr %12, align 8, !tbaa !3
  call void @Aig_ManIncrementTravId(ptr noundef %31) #11
  %32 = load ptr, ptr %12, align 8, !tbaa !3
  %33 = getelementptr i8, ptr %32, i64 48
  %.val35 = load ptr, ptr %33, align 8, !tbaa !38
  %34 = getelementptr i8, ptr %32, i64 312
  %.val = load i32, ptr %34, align 8, !tbaa !17
  %35 = getelementptr inbounds nuw i8, ptr %.val35, i64 32
  store i32 %.val, ptr %35, align 8, !tbaa !26
  call void @Dch_ManResimulateSolved_rec(ptr noundef nonnull %0, ptr noundef %1)
  call void @Dch_ManResimulateSolved_rec(ptr noundef nonnull %0, ptr noundef %2)
  %36 = getelementptr inbounds nuw i8, ptr %0, i64 108
  %37 = load i32, ptr %36, align 4, !tbaa !65
  %38 = load i32, ptr %30, align 8, !tbaa !61
  %39 = call noundef i32 @llvm.smax.i32(i32 %37, i32 %38)
  store i32 %39, ptr %36, align 4, !tbaa !65
  %40 = getelementptr inbounds nuw i8, ptr %0, i64 88
  %41 = load ptr, ptr %40, align 8, !tbaa !39
  %42 = getelementptr i8, ptr %41, i64 4
  %.val3646 = load i32, ptr %42, align 4, !tbaa !40
  %43 = icmp sgt i32 %.val3646, 0
  br i1 %43, label %.lr.ph, label %.critedge

.lr.ph:                                           ; preds = %29, %.lr.ph
  %indvars.iv = phi i64 [ %indvars.iv.next, %.lr.ph ], [ 0, %29 ]
  %44 = phi ptr [ %48, %.lr.ph ], [ %41, %29 ]
  %45 = getelementptr i8, ptr %44, i64 8
  %.val34 = load ptr, ptr %45, align 8, !tbaa !31
  %46 = getelementptr inbounds nuw ptr, ptr %.val34, i64 %indvars.iv
  %47 = load ptr, ptr %46, align 8, !tbaa !33
  call void @Dch_ManResimulateOther_rec(ptr noundef nonnull %0, ptr noundef %47)
  %indvars.iv.next = add nuw nsw i64 %indvars.iv, 1
  %48 = load ptr, ptr %40, align 8, !tbaa !39
  %49 = getelementptr i8, ptr %48, i64 4
  %.val36 = load i32, ptr %49, align 4, !tbaa !40
  %50 = sext i32 %.val36 to i64
  %51 = icmp slt i64 %indvars.iv.next, %50
  br i1 %51, label %.lr.ph, label %.critedge, !llvm.loop !71

.critedge:                                        ; preds = %.lr.ph, %29
  %.lcssa = phi ptr [ %41, %29 ], [ %48, %.lr.ph ]
  %52 = load ptr, ptr %12, align 8, !tbaa !3
  %53 = getelementptr i8, ptr %52, i64 256
  %.val.i37 = load ptr, ptr %53, align 8, !tbaa !36
  %.not.i.i38 = icmp eq ptr %.val.i37, null
  br i1 %.not.i.i38, label %Dch_ObjIsConst1Cand.exit40, label %54

54:                                               ; preds = %.critedge
  %55 = getelementptr inbounds nuw i8, ptr %1, i64 36
  %56 = load i32, ptr %55, align 4, !tbaa !27
  %57 = sext i32 %56 to i64
  %58 = getelementptr inbounds ptr, ptr %.val.i37, i64 %57
  %59 = load ptr, ptr %58, align 8, !tbaa !37
  br label %Dch_ObjIsConst1Cand.exit40

Dch_ObjIsConst1Cand.exit40:                       ; preds = %.critedge, %54
  %60 = phi ptr [ %59, %54 ], [ null, %.critedge ]
  %61 = getelementptr i8, ptr %52, i64 48
  %.val3.i39 = load ptr, ptr %61, align 8, !tbaa !38
  %.not43 = icmp eq ptr %60, %.val3.i39
  %62 = getelementptr inbounds nuw i8, ptr %0, i64 24
  %63 = load ptr, ptr %62, align 8, !tbaa !67
  br i1 %.not43, label %64, label %66

64:                                               ; preds = %Dch_ObjIsConst1Cand.exit40
  %65 = call i32 @Dch_ClassesRefineConst1Group(ptr noundef %63, ptr noundef nonnull %.lcssa, i32 noundef 0) #11
  br label %68

66:                                               ; preds = %Dch_ObjIsConst1Cand.exit40
  %67 = call i32 @Dch_ClassesRefineOneClass(ptr noundef %63, ptr noundef %2, i32 noundef 0) #11
  br label %68

68:                                               ; preds = %66, %64
  call void @llvm.lifetime.start.p0(i64 16, ptr nonnull %4) #11
  %69 = call i32 @clock_gettime(i32 noundef 1, ptr noundef nonnull %4) #11
  %70 = icmp slt i32 %69, 0
  br i1 %70, label %Abc_Clock.exit42, label %71

71:                                               ; preds = %68
  %72 = load i64, ptr %4, align 8, !tbaa !62
  %73 = mul nsw i64 %72, 1000000
  %74 = getelementptr inbounds nuw i8, ptr %4, i64 8
  %75 = load i64, ptr %74, align 8, !tbaa !64
  %76 = sdiv i64 %75, 1000
  %77 = add nsw i64 %76, %73
  br label %Abc_Clock.exit42

Abc_Clock.exit42:                                 ; preds = %68, %71
  %.0.i41 = phi i64 [ %77, %71 ], [ -1, %68 ]
  call void @llvm.lifetime.end.p0(i64 16, ptr nonnull %4) #11
  %78 = add i64 %.0.i41, %.0.i.neg
  %79 = getelementptr inbounds nuw i8, ptr %0, i64 160
  %80 = load i64, ptr %79, align 8, !tbaa !70
  %81 = add nsw i64 %78, %80
  store i64 %81, ptr %79, align 8, !tbaa !70
  ret void
}